; Function Attrs: nounwind uwtable
define void @ff_mpeg4_stuffing(ptr noundef captures(none) %0) local_unnamed_addr #0 {
  %2 = getelementptr inbounds nuw i8, ptr %0, i64 16
  %3 = load ptr, ptr %2, align 8, !tbaa !56
  %4 = getelementptr inbounds nuw i8, ptr %0, i64 4
  %5 = load i32, ptr %4, align 4, !tbaa !57
  %reass.sub.i = sub i32 0, %5
  %6 = and i32 %reass.sub.i, 7
  %.neg4 = or i32 %reass.sub.i, -8
  %7 = sub nuw nsw i32 8, %6
  %8 = xor i32 %6, 7
  %notmask = shl nsw i32 -1, %8
  %9 = xor i32 %notmask, -1
  %10 = load i32, ptr %0, align 8, !tbaa !58
  %11 = icmp slt i32 %7, %5
  br i1 %11, label %12, label %16

12:                                               ; preds = %1
  %13 = shl i32 %10, %7
  %14 = or i32 %13, %9
  %15 = sub nsw i32 %5, %7
  br label %put_bits.exit

16:                                               ; preds = %1
  %17 = ptrtoint ptr %3 to i64
  %18 = getelementptr inbounds nuw i8, ptr %0, i64 24
  %19 = load ptr, ptr %18, align 8, !tbaa !59
  %20 = ptrtoint ptr %19 to i64
  %21 = sub i64 %20, %17
  %22 = icmp ugt i64 %21, 3
  br i1 %22, label %23, label %31

23:                                               ; preds = %16
  %24 = shl i32 %10, %5
  %25 = sub nsw i32 %7, %5
  %26 = lshr i32 %9, %25
  %27 = or i32 %26, %24
  %28 = tail call i32 @llvm.bswap.i32(i32 %27)
  store i32 %28, ptr %3, align 1, !tbaa !49
  %29 = load ptr, ptr %2, align 8, !tbaa !56
  %30 = getelementptr inbounds nuw i8, ptr %29, i64 4
  store ptr %30, ptr %2, align 8, !tbaa !56
  br label %32

31:                                               ; preds = %16
  tail call void (ptr, i32, ptr, ...) @av_log(ptr noundef null, i32 noundef 16, ptr noundef nonnull @.str.2) #13
  br label %32

32:                                               ; preds = %31, %23
  %reass.sub.i3 = add nsw i32 %5, 32
  %33 = add nsw i32 %reass.sub.i3, %.neg4
  br label %put_bits.exit

put_bits.exit:                                    ; preds = %12, %32
  %.026.i.i = phi i32 [ %14, %12 ], [ %9, %32 ]
  %.0.i.i = phi i32 [ %15, %12 ], [ %33, %32 ]
  store i32 %.026.i.i, ptr %0, align 8, !tbaa !58
  store i32 %.0.i.i, ptr %4, align 4, !tbaa !57
  ret void
}